target datalayout = "e-m:e-p270:32:32-p271:32:32-p272:64:64-i64:64-i128:128-f80:128-n8:16:32:64-S128"
target triple = "x86_64-pc-linux-gnu"

%struct.re_registers = type { i32, i32, ptr, ptr }

; Function Attrs: nounwind sspstrong uwtable
define dso_local void @onig_region_clear(ptr noundef %0) #0 {
  %2 = alloca ptr, align 8
  %3 = alloca i32, align 4
  store ptr %0, ptr %2, align 8, !tbaa !24
  call void @llvm.lifetime.start.p0(i64 4, ptr %3) #12
  store i32 0, ptr %3, align 4, !tbaa !26
  br label %4

4:                                                ; preds = %23, %1
  %5 = load i32, ptr %3, align 4, !tbaa !26
  %6 = load ptr, ptr %2, align 8, !tbaa !24
  %7 = getelementptr inbounds nuw %struct.re_registers, ptr %6, i32 0, i32 1
  %8 = load i32, ptr %7, align 4, !tbaa !27
  %9 = icmp slt i32 %5, %8
  br i1 %9, label %10, label %26

10:                                               ; preds = %4
  %11 = load ptr, ptr %2, align 8, !tbaa !24
  %12 = getelementptr inbounds nuw %struct.re_registers, ptr %11, i32 0, i32 3
  %13 = load ptr, ptr %12, align 8, !tbaa !29
  %14 = load i32, ptr %3, align 4, !tbaa !26
  %15 = sext i32 %14 to i64
  %16 = getelementptr i64, ptr %13, i64 %15
  store i64 -1, ptr %16, align 8, !tbaa !12
  %17 = load ptr, ptr %2, align 8, !tbaa !24
  %18 = getelementptr inbounds nuw %struct.re_registers, ptr %17, i32 0, i32 2
  %19 = load ptr, ptr %18, align 8, !tbaa !30
  %20 = load i32, ptr %3, align 4, !tbaa !26
  %21 = sext i32 %20 to i64
  %22 = getelementptr i64, ptr %19, i64 %21
  store i64 -1, ptr %22, align 8, !tbaa !12
  br label %23

23:                                               ; preds = %10
  %24 = load i32, ptr %3, align 4, !tbaa !26
  %25 = add i32 %24, 1
  store i32 %25, ptr %3, align 4, !tbaa !26
  br label %4, !llvm.loop !31

26:                                               ; preds = %4
  call void @llvm.lifetime.end.p0(i64 4, ptr %3) #12
  ret void
}