; Function Attrs: nofree norecurse nosync nounwind sspstrong memory(write, argmem: readwrite, inaccessiblemem: none) uwtable
define dso_local void @onig_region_clear(ptr noundef readonly captures(none) %0) local_unnamed_addr #2 {
  %2 = getelementptr inbounds nuw i8, ptr %0, i64 4
  %3 = load i32, ptr %2, align 4, !tbaa !20
  %4 = icmp sgt i32 %3, 0
  br i1 %4, label %.lr.ph, label %._crit_edge

.lr.ph:                                           ; preds = %1
  %5 = getelementptr inbounds nuw i8, ptr %0, i64 16
  %6 = load ptr, ptr %5, align 8, !tbaa !23
  %7 = getelementptr inbounds nuw i8, ptr %0, i64 8
  %8 = load ptr, ptr %7, align 8, !tbaa !24
  %wide.trip.count = zext nneg i32 %3 to i64
  br label %9

9:                                                ; preds = %.lr.ph, %9
  %indvars.iv = phi i64 [ 0, %.lr.ph ], [ %indvars.iv.next, %9 ]
  %10 = getelementptr i64, ptr %6, i64 %indvars.iv
  store i64 -1, ptr %10, align 8, !tbaa !19
  %11 = getelementptr i64, ptr %8, i64 %indvars.iv
  store i64 -1, ptr %11, align 8, !tbaa !19
  %indvars.iv.next = add nuw nsw i64 %indvars.iv, 1
  %exitcond.not = icmp eq i64 %indvars.iv.next, %wide.trip.count
  br i1 %exitcond.not, label %._crit_edge, label %9, !llvm.loop !25

._crit_edge:                                      ; preds = %9, %1
  ret void
}